; ModuleID = 'source-C-CXX/49/2720.c'
source_filename = "source-C-CXX/49/2720.c"
target datalayout = "e-m:e-p270:32:32-p271:32:32-p272:64:64-i64:64-f80:128-n8:16:32:64-S128"
target triple = "x86_64-pc-linux-gnu"

@.str = private unnamed_addr constant [3 x i8] c"%d\00", align 1
@.str.1 = private unnamed_addr constant [4 x i8] c"%d\0A\00", align 1

; Function Attrs: nofree nounwind sspstrong uwtable
define dso_local void @main() local_unnamed_addr #0 {
  %1 = alloca i32, align 4
  %2 = bitcast i32* %1 to i8*
  call void @llvm.lifetime.start.p0i8(i64 4, i8* nonnull %2) #3
  %3 = call i32 (i8*, ...) @__isoc99_scanf(i8* getelementptr inbounds ([3 x i8], [3 x i8]* @.str, i64 0, i64 0), i32* nonnull %1)
  %4 = load i32, i32* %1, align 4, !tbaa !5
  %5 = add nsw i32 %4, 12
  %6 = add nsw i32 %4, 43
  %7 = add nsw i32 %4, 71
  %8 = add nsw i32 %4, 102
  %9 = add nsw i32 %4, 132
  %10 = add nsw i32 %4, 163
  %11 = add nsw i32 %4, 193
  %12 = add nsw i32 %4, 224
  %13 = add nsw i32 %4, 255
  %14 = add nsw i32 %4, 285
  %15 = add nsw i32 %4, 316
  %16 = add nsw i32 %4, 346
  %17 = srem i32 %5, 7
  %18 = icmp eq i32 %17, 5
  br i1 %18, label %19, label %21

19:                                               ; preds = %0
  %20 = call i32 (i8*, ...) @printf(i8* nonnull dereferenceable(1) getelementptr inbounds ([4 x i8], [4 x i8]* @.str.1, i64 0, i64 0), i32 1)
  br label %21

21:                                               ; preds = %0, %19
  %22 = srem i32 %6, 7
  %23 = icmp eq i32 %22, 5
  br i1 %23, label %24, label %26

24:                                               ; preds = %21
  %25 = call i32 (i8*, ...) @printf(i8* nonnull dereferenceable(1) getelementptr inbounds ([4 x i8], [4 x i8]* @.str.1, i64 0, i64 0), i32 2)
  br label %26

26:                                               ; preds = %24, %21
  %27 = srem i32 %7, 7
  %28 = icmp eq i32 %27, 5
  br i1 %28, label %29, label %31

29:                                               ; preds = %26
  %30 = call i32 (i8*, ...) @printf(i8* nonnull dereferenceable(1) getelementptr inbounds ([4 x i8], [4 x i8]* @.str.1, i64 0, i64 0), i32 3)
  br label %31

31:                                               ; preds = %29, %26
  %32 = srem i32 %8, 7
  %33 = icmp eq i32 %32, 5
  br i1 %33, label %34, label %36

34:                                               ; preds = %31
  %35 = call i32 (i8*, ...) @printf(i8* nonnull dereferenceable(1) getelementptr inbounds ([4 x i8], [4 x i8]* @.str.1, i64 0, i64 0), i32 4)
  br label %36

36:                                               ; preds = %34, %31
  %37 = srem i32 %9, 7
  %38 = icmp eq i32 %37, 5
  br i1 %38, label %39, label %41

39:                                               ; preds = %36
  %40 = call i32 (i8*, ...) @printf(i8* nonnull dereferenceable(1) getelementptr inbounds ([4 x i8], [4 x i8]* @.str.1, i64 0, i64 0), i32 5)
  br label %41

41:                                               ; preds = %39, %36
  %42 = srem i32 %10, 7
  %43 = icmp eq i32 %42, 5
  br i1 %43, label %44, label %46

44:                                               ; preds = %41
  %45 = call i32 (i8*, ...) @printf(i8* nonnull dereferenceable(1) getelementptr inbounds ([4 x i8], [4 x i8]* @.str.1, i64 0, i64 0), i32 6)
  br label %46

46:                                               ; preds = %44, %41
  %47 = srem i32 %11, 7
  %48 = icmp eq i32 %47, 5
  br i1 %48, label %49, label %51

49:                                               ; preds = %46
  %50 = call i32 (i8*, ...) @printf(i8* nonnull dereferenceable(1) getelementptr inbounds ([4 x i8], [4 x i8]* @.str.1, i64 0, i64 0), i32 7)
  br label %51

51:                                               ; preds = %49, %46
  %52 = srem i32 %12, 7
  %53 = icmp eq i32 %52, 5
  br i1 %53, label %54, label %56

54:                                               ; preds = %51
  %55 = call i32 (i8*, ...) @printf(i8* nonnull dereferenceable(1) getelementptr inbounds ([4 x i8], [4 x i8]* @.str.1, i64 0, i64 0), i32 8)
  br label %56

56:                                               ; preds = %54, %51
  %57 = srem i32 %13, 7
  %58 = icmp eq i32 %57, 5
  br i1 %58, label %59, label %61

59:                                               ; preds = %56
  %60 = call i32 (i8*, ...) @printf(i8* nonnull dereferenceable(1) getelementptr inbounds ([4 x i8], [4 x i8]* @.str.1, i64 0, i64 0), i32 9)
  br label %61

61:                                               ; preds = %59, %56
  %62 = srem i32 %14, 7
  %63 = icmp eq i32 %62, 5
  br i1 %63, label %64, label %66

64:                                               ; preds = %61
  %65 = call i32 (i8*, ...) @printf(i8* nonnull dereferenceable(1) getelementptr inbounds ([4 x i8], [4 x i8]* @.str.1, i64 0, i64 0), i32 10)
  br label %66

66:                                               ; preds = %64, %61
  %67 = srem i32 %15, 7
  %68 = icmp eq i32 %67, 5
  br i1 %68, label %69, label %71

69:                                               ; preds = %66
  %70 = call i32 (i8*, ...) @printf(i8* nonnull dereferenceable(1) getelementptr inbounds ([4 x i8], [4 x i8]* @.str.1, i64 0, i64 0), i32 11)
  br label %71

71:                                               ; preds = %69, %66
  %72 = srem i32 %16, 7
  %73 = icmp eq i32 %72, 5
  br i1 %73, label %74, label %76

74:                                               ; preds = %71
  %75 = call i32 (i8*, ...) @printf(i8* nonnull dereferenceable(1) getelementptr inbounds ([4 x i8], [4 x i8]* @.str.1, i64 0, i64 0), i32 12)
  br label %76

76:                                               ; preds = %74, %71
  call void @llvm.lifetime.end.p0i8(i64 4, i8* nonnull %2) #3
  ret void
}

; Function Attrs: argmemonly mustprogress nofree nosync nounwind willreturn
declare void @llvm.lifetime.start.p0i8(i64 immarg, i8* nocapture) #1

; Function Attrs: nofree nounwind
declare noundef i32 @__isoc99_scanf(i8* nocapture noundef readonly, ...) local_unnamed_addr #2

; Function Attrs: nofree nounwind
declare noundef i32 @printf(i8* nocapture noundef readonly, ...) local_unnamed_addr #2

; Function Attrs: argmemonly mustprogress nofree nosync nounwind willreturn
declare void @llvm.lifetime.end.p0i8(i64 immarg, i8* nocapture) #1


!llvm.module.flags = !{!0, !1, !2, !3}
!llvm.ident = !{!4}

!0 = !{i32 1, !"wchar_size", i32 4}
!1 = !{i32 7, !"PIC Level", i32 2}
!2 = !{i32 7, !"PIE Level", i32 2}
!3 = !{i32 7, !"uwtable", i32 1}
!4 = !{!"clang version 13.0.0"}
!5 = !{!6, !6, i64 0}
!6 = !{!"int", !7, i64 0}
!7 = !{!"omnipotent char", !8, i64 0}
!8 = !{!"Simple C/C++ TBAA"}
